; Function Attrs: mustprogress uwtable
define noundef double @_ZN3gmx9SaxsDebye19getScatteringLengthEid(ptr noundef nonnull align 8 dereferenceable(240) %0, i32 noundef %1, double noundef %2) unnamed_addr #1 align 2 {
  %4 = alloca %"struct.std::pair", align 8
  %5 = getelementptr inbounds i8, ptr %0, i64 160
  %6 = sext i32 %1 to i64
  %7 = load ptr, ptr %5, align 8
  %8 = getelementptr inbounds i32, ptr %7, i64 %6
  %9 = load i32, ptr %8, align 4
  store i32 %9, ptr %4, align 8
  %10 = getelementptr inbounds i8, ptr %4, i64 8
  store double %2, ptr %10, align 8
  %11 = getelementptr inbounds i8, ptr %0, i64 184
  %12 = call noundef nonnull align 8 dereferenceable(8) ptr @_ZNSt8__detail9_Map_baseISt4pairIidES1_IKS2_dESaIS4_ENS_10_Select1stESt8equal_toIS2_EN3gmx8pairHashENS_18_Mod_range_hashingENS_20_Default_ranged_hashENS_20_Prime_rehash_policyENS_17_Hashtable_traitsILb1ELb0ELb1EEELb1EEixERS3_(ptr noundef nonnull align 1 dereferenceable(1) %11, ptr noundef nonnull align 8 dereferenceable(16) %4)
  %13 = load double, ptr %12, align 8
  ret double %13
}